target datalayout = "e-m:e-p270:32:32-p271:32:32-p272:64:64-i64:64-i128:128-f80:128-n8:16:32:64-S128"
target triple = "x86_64-pc-linux-gnu"

%class.anon = type { ptr }
%"class.clang::SourceRange" = type { %"class.clang::SourceLocation", %"class.clang::SourceLocation" }
%"class.clang::SourceLocation" = type { i32 }
%"class.clang::CoverageSourceInfo" = type <{ %"class.clang::PPCallbacks", %"class.clang::CommentHandler", %"class.clang::EmptylineHandler", %"class.std::vector", ptr, %"class.clang::SourceLocation", [4 x i8] }>
%"class.clang::PPCallbacks" = type { ptr }
%"class.clang::CommentHandler" = type { ptr }
%"class.clang::EmptylineHandler" = type { ptr }
%"class.std::vector" = type { %"struct.std::_Vector_base" }
%"struct.std::_Vector_base" = type { %"struct.std::_Vector_base<clang::SkippedRange, std::allocator<clang::SkippedRange>>::_Vector_impl" }
%"struct.std::_Vector_base<clang::SkippedRange, std::allocator<clang::SkippedRange>>::_Vector_impl" = type { %"struct.std::_Vector_base<clang::SkippedRange, std::allocator<clang::SkippedRange>>::_Vector_impl_data" }
%"struct.std::_Vector_base<clang::SkippedRange, std::allocator<clang::SkippedRange>>::_Vector_impl_data" = type { ptr, ptr, ptr }
%"struct.clang::SkippedRange" = type { %"class.clang::SourceRange", %"class.clang::SourceLocation", %"class.clang::SourceLocation", i32 }
%"class.__gnu_cxx::__normal_iterator.1809" = type { ptr }
%"class.__gnu_cxx::__normal_iterator.1800" = type { ptr }
%"class.clang::Token" = type <{ i32, i32, ptr, i16, i16, [4 x i8] }>

; Function Attrs: mustprogress nounwind uwtable
define linkonce_odr hidden void @_ZN9__gnu_cxx17__normal_iteratorIPN5clang12SkippedRangeESt6vectorIS2_SaIS2_EEEC2ERKS3_(ptr noundef nonnull align 8 dereferenceable(8) %0, ptr noundef nonnull align 8 dereferenceable(8) %1) unnamed_addr #1 comdat align 2 {
  %3 = alloca ptr, align 8
  %4 = alloca ptr, align 8
  store ptr %0, ptr %3, align 8
  store ptr %1, ptr %4, align 8
  %5 = load ptr, ptr %3, align 8
  %6 = getelementptr inbounds nuw %"class.__gnu_cxx::__normal_iterator.1800", ptr %5, i32 0, i32 0
  %7 = load ptr, ptr %4, align 8
  %8 = load ptr, ptr %7, align 8
  store ptr %8, ptr %6, align 8
  ret void
}

; Function Attrs: mustprogress nounwind uwtable
define linkonce_odr hidden noundef nonnull align 8 dereferenceable(8) ptr @_ZNK9__gnu_cxx17__normal_iteratorIPKN5clang12SkippedRangeESt6vectorIS2_SaIS2_EEE4baseEv(ptr noundef nonnull align 8 dereferenceable(8) %0) #1 comdat align 2 {
  %2 = alloca ptr, align 8
  store ptr %0, ptr %2, align 8
  %3 = load ptr, ptr %2, align 8
  %4 = getelementptr inbounds nuw %"class.__gnu_cxx::__normal_iterator.1809", ptr %3, i32 0, i32 0
  ret ptr %4
}

; Function Attrs: mustprogress nounwind uwtable
define linkonce_odr hidden void @_ZN9__gnu_cxx17__normal_iteratorIPKN5clang12SkippedRangeESt6vectorIS2_SaIS2_EEEC2ERKS4_(ptr noundef nonnull align 8 dereferenceable(8) %0, ptr noundef nonnull align 8 dereferenceable(8) %1) unnamed_addr #1 comdat align 2 {
  %3 = alloca ptr, align 8
  %4 = alloca ptr, align 8
  store ptr %0, ptr %3, align 8
  store ptr %1, ptr %4, align 8
  %5 = load ptr, ptr %3, align 8
  %6 = getelementptr inbounds nuw %"class.__gnu_cxx::__normal_iterator.1809", ptr %5, i32 0, i32 0
  %7 = load ptr, ptr %4, align 8
  %8 = load ptr, ptr %7, align 8
  store ptr %8, ptr %6, align 8
  ret void
}

; Function Attrs: mustprogress nounwind uwtable
define linkonce_odr hidden noundef nonnull align 4 dereferenceable(20) ptr @_ZNK9__gnu_cxx17__normal_iteratorIPN5clang12SkippedRangeESt6vectorIS2_SaIS2_EEEdeEv(ptr noundef nonnull align 8 dereferenceable(8) %0) #1 comdat align 2 {
  %2 = alloca ptr, align 8
  store ptr %0, ptr %2, align 8
  %3 = load ptr, ptr %2, align 8
  %4 = getelementptr inbounds nuw %"class.__gnu_cxx::__normal_iterator.1800", ptr %3, i32 0, i32 0
  %5 = load ptr, ptr %4, align 8
  ret ptr %5
}

; Function Attrs: mustprogress nounwind uwtable
define linkonce_odr hidden ptr @_ZNK9__gnu_cxx17__normal_iteratorIPN5clang12SkippedRangeESt6vectorIS2_SaIS2_EEEmiEl(ptr noundef nonnull align 8 dereferenceable(8) %0, i64 noundef %1) #1 comdat align 2 {
  %3 = alloca %"class.__gnu_cxx::__normal_iterator.1800", align 8
  %4 = alloca ptr, align 8
  %5 = alloca i64, align 8
  %6 = alloca ptr, align 8
  store ptr %0, ptr %4, align 8
  store i64 %1, ptr %5, align 8
  %7 = load ptr, ptr %4, align 8
  %8 = getelementptr inbounds nuw %"class.__gnu_cxx::__normal_iterator.1800", ptr %7, i32 0, i32 0
  %9 = load ptr, ptr %8, align 8
  %10 = load i64, ptr %5, align 8
  %11 = sub i64 0, %10
  %12 = getelementptr inbounds %"struct.clang::SkippedRange", ptr %9, i64 %11
  store ptr %12, ptr %6, align 8
  call void @_ZN9__gnu_cxx17__normal_iteratorIPN5clang12SkippedRangeESt6vectorIS2_SaIS2_EEEC2ERKS3_(ptr noundef nonnull align 8 dereferenceable(8) %3, ptr noundef nonnull align 8 dereferenceable(8) %6) #2
  %13 = getelementptr inbounds nuw %"class.__gnu_cxx::__normal_iterator.1800", ptr %3, i32 0, i32 0
  %14 = load ptr, ptr %13, align 8
  ret ptr %14
}

; Function Attrs: mustprogress nounwind uwtable
define linkonce_odr hidden ptr @_ZNSt6vectorIN5clang12SkippedRangeESaIS1_EE3endEv(ptr noundef nonnull align 8 dereferenceable(24) %0) #1 comdat align 2 {
  %2 = alloca %"class.__gnu_cxx::__normal_iterator.1800", align 8
  %3 = alloca ptr, align 8
  store ptr %0, ptr %3, align 8
  %4 = load ptr, ptr %3, align 8
  %5 = getelementptr inbounds nuw %"struct.std::_Vector_base", ptr %4, i32 0, i32 0
  %6 = getelementptr inbounds nuw %"struct.std::_Vector_base<clang::SkippedRange, std::allocator<clang::SkippedRange>>::_Vector_impl_data", ptr %5, i32 0, i32 1
  call void @_ZN9__gnu_cxx17__normal_iteratorIPN5clang12SkippedRangeESt6vectorIS2_SaIS2_EEEC2ERKS3_(ptr noundef nonnull align 8 dereferenceable(8) %2, ptr noundef nonnull align 8 dereferenceable(8) %6) #2
  %7 = getelementptr inbounds nuw %"class.__gnu_cxx::__normal_iterator.1800", ptr %2, i32 0, i32 0
  %8 = load ptr, ptr %7, align 8
  ret ptr %8
}

; Function Attrs: mustprogress nounwind uwtable
define linkonce_odr noundef zeroext i1 @_ZN9__gnu_cxxeqIPKN5clang12SkippedRangeESt6vectorIS2_SaIS2_EEEEbRKNS_17__normal_iteratorIT_T0_EESD_(ptr noundef nonnull align 8 dereferenceable(8) %0, ptr noundef nonnull align 8 dereferenceable(8) %1) #1 comdat {
  %3 = alloca ptr, align 8
  %4 = alloca ptr, align 8
  store ptr %0, ptr %3, align 8
  store ptr %1, ptr %4, align 8
  %5 = load ptr, ptr %3, align 8
  %6 = call noundef nonnull align 8 dereferenceable(8) ptr @_ZNK9__gnu_cxx17__normal_iteratorIPKN5clang12SkippedRangeESt6vectorIS2_SaIS2_EEE4baseEv(ptr noundef nonnull align 8 dereferenceable(8) %5) #2
  %7 = load ptr, ptr %6, align 8
  %8 = load ptr, ptr %4, align 8
  %9 = call noundef nonnull align 8 dereferenceable(8) ptr @_ZNK9__gnu_cxx17__normal_iteratorIPKN5clang12SkippedRangeESt6vectorIS2_SaIS2_EEE4baseEv(ptr noundef nonnull align 8 dereferenceable(8) %8) #2
  %10 = load ptr, ptr %9, align 8
  %11 = icmp eq ptr %7, %10
  ret i1 %11
}

; Function Attrs: mustprogress nounwind uwtable
define linkonce_odr hidden ptr @_ZNKSt6vectorIN5clang12SkippedRangeESaIS1_EE3endEv(ptr noundef nonnull align 8 dereferenceable(24) %0) #1 comdat align 2 {
  %2 = alloca %"class.__gnu_cxx::__normal_iterator.1809", align 8
  %3 = alloca ptr, align 8
  store ptr %0, ptr %3, align 8
  %4 = load ptr, ptr %3, align 8
  %5 = getelementptr inbounds nuw %"struct.std::_Vector_base", ptr %4, i32 0, i32 0
  %6 = getelementptr inbounds nuw %"struct.std::_Vector_base<clang::SkippedRange, std::allocator<clang::SkippedRange>>::_Vector_impl_data", ptr %5, i32 0, i32 1
  call void @_ZN9__gnu_cxx17__normal_iteratorIPKN5clang12SkippedRangeESt6vectorIS2_SaIS2_EEEC2ERKS4_(ptr noundef nonnull align 8 dereferenceable(8) %2, ptr noundef nonnull align 8 dereferenceable(8) %6) #2
  %7 = getelementptr inbounds nuw %"class.__gnu_cxx::__normal_iterator.1809", ptr %2, i32 0, i32 0
  %8 = load ptr, ptr %7, align 8
  ret ptr %8
}

; Function Attrs: mustprogress nounwind uwtable
define linkonce_odr hidden ptr @_ZNKSt6vectorIN5clang12SkippedRangeESaIS1_EE5beginEv(ptr noundef nonnull align 8 dereferenceable(24) %0) #1 comdat align 2 {
  %2 = alloca %"class.__gnu_cxx::__normal_iterator.1809", align 8
  %3 = alloca ptr, align 8
  store ptr %0, ptr %3, align 8
  %4 = load ptr, ptr %3, align 8
  %5 = getelementptr inbounds nuw %"struct.std::_Vector_base", ptr %4, i32 0, i32 0
  %6 = getelementptr inbounds nuw %"struct.std::_Vector_base<clang::SkippedRange, std::allocator<clang::SkippedRange>>::_Vector_impl_data", ptr %5, i32 0, i32 0
  call void @_ZN9__gnu_cxx17__normal_iteratorIPKN5clang12SkippedRangeESt6vectorIS2_SaIS2_EEEC2ERKS4_(ptr noundef nonnull align 8 dereferenceable(8) %2, ptr noundef nonnull align 8 dereferenceable(8) %6) #2
  %7 = getelementptr inbounds nuw %"class.__gnu_cxx::__normal_iterator.1809", ptr %2, i32 0, i32 0
  %8 = load ptr, ptr %7, align 8
  ret ptr %8
}

; Function Attrs: mustprogress nounwind uwtable
define linkonce_odr hidden void @_ZN5clang14SourceLocationC2Ev(ptr noundef nonnull align 4 dereferenceable(4) %0) unnamed_addr #1 comdat align 2 {
  %2 = alloca ptr, align 8
  store ptr %0, ptr %2, align 8
  %3 = load ptr, ptr %2, align 8
  %4 = getelementptr inbounds nuw %"class.clang::SourceLocation", ptr %3, i32 0, i32 0
  store i32 0, ptr %4, align 4
  ret void
}

; Function Attrs: mustprogress nounwind uwtable
define linkonce_odr hidden noundef zeroext i1 @_ZNK5clang14SourceLocation9isInvalidEv(ptr noundef nonnull align 4 dereferenceable(4) %0) #1 comdat align 2 {
  %2 = alloca ptr, align 8
  store ptr %0, ptr %2, align 8
  %3 = load ptr, ptr %2, align 8
  %4 = getelementptr inbounds nuw %"class.clang::SourceLocation", ptr %3, i32 0, i32 0
  %5 = load i32, ptr %4, align 4
  %6 = icmp eq i32 %5, 0
  ret i1 %6
}

; Function Attrs: mustprogress nounwind uwtable
define linkonce_odr hidden noundef nonnull align 4 dereferenceable(20) ptr @_ZNSt6vectorIN5clang12SkippedRangeESaIS1_EE4backEv(ptr noundef nonnull align 8 dereferenceable(24) %0) #1 comdat align 2 {
  %2 = alloca ptr, align 8
  %3 = alloca %"class.__gnu_cxx::__normal_iterator.1800", align 8
  %4 = alloca %"class.__gnu_cxx::__normal_iterator.1800", align 8
  store ptr %0, ptr %2, align 8
  %5 = load ptr, ptr %2, align 8
  %6 = call ptr @_ZNSt6vectorIN5clang12SkippedRangeESaIS1_EE3endEv(ptr noundef nonnull align 8 dereferenceable(24) %5) #2
  %7 = getelementptr inbounds nuw %"class.__gnu_cxx::__normal_iterator.1800", ptr %4, i32 0, i32 0
  store ptr %6, ptr %7, align 8
  %8 = call ptr @_ZNK9__gnu_cxx17__normal_iteratorIPN5clang12SkippedRangeESt6vectorIS2_SaIS2_EEEmiEl(ptr noundef nonnull align 8 dereferenceable(8) %4, i64 noundef 1) #2
  %9 = getelementptr inbounds nuw %"class.__gnu_cxx::__normal_iterator.1800", ptr %3, i32 0, i32 0
  store ptr %8, ptr %9, align 8
  %10 = call noundef nonnull align 4 dereferenceable(20) ptr @_ZNK9__gnu_cxx17__normal_iteratorIPN5clang12SkippedRangeESt6vectorIS2_SaIS2_EEEdeEv(ptr noundef nonnull align 8 dereferenceable(8) %3) #2
  ret ptr %10
}

; Function Attrs: mustprogress nounwind uwtable
define linkonce_odr hidden noundef zeroext i1 @_ZNKSt6vectorIN5clang12SkippedRangeESaIS1_EE5emptyEv(ptr noundef nonnull align 8 dereferenceable(24) %0) #1 comdat align 2 {
  %2 = alloca ptr, align 8
  %3 = alloca %"class.__gnu_cxx::__normal_iterator.1809", align 8
  %4 = alloca %"class.__gnu_cxx::__normal_iterator.1809", align 8
  store ptr %0, ptr %2, align 8
  %5 = load ptr, ptr %2, align 8
  %6 = call ptr @_ZNKSt6vectorIN5clang12SkippedRangeESaIS1_EE5beginEv(ptr noundef nonnull align 8 dereferenceable(24) %5) #2
  %7 = getelementptr inbounds nuw %"class.__gnu_cxx::__normal_iterator.1809", ptr %3, i32 0, i32 0
  store ptr %6, ptr %7, align 8
  %8 = call ptr @_ZNKSt6vectorIN5clang12SkippedRangeESaIS1_EE3endEv(ptr noundef nonnull align 8 dereferenceable(24) %5) #2
  %9 = getelementptr inbounds nuw %"class.__gnu_cxx::__normal_iterator.1809", ptr %4, i32 0, i32 0
  store ptr %8, ptr %9, align 8
  %10 = call noundef zeroext i1 @_ZN9__gnu_cxxeqIPKN5clang12SkippedRangeESt6vectorIS2_SaIS2_EEEEbRKNS_17__normal_iteratorIT_T0_EESD_(ptr noundef nonnull align 8 dereferenceable(8) %3, ptr noundef nonnull align 8 dereferenceable(8) %4) #2
  ret i1 %10
}

; Function Attrs: mustprogress nounwind uwtable
define linkonce_odr hidden i32 @_ZN5clang14SourceLocation18getFromRawEncodingEj(i32 noundef %0) #1 comdat align 2 {
  %2 = alloca %"class.clang::SourceLocation", align 4
  %3 = alloca i32, align 4
  store i32 %0, ptr %3, align 4
  call void @_ZN5clang14SourceLocationC2Ev(ptr noundef nonnull align 4 dereferenceable(4) %2) #2
  %4 = load i32, ptr %3, align 4
  %5 = getelementptr inbounds nuw %"class.clang::SourceLocation", ptr %2, i32 0, i32 0
  store i32 %4, ptr %5, align 4
  %6 = getelementptr inbounds nuw %"class.clang::SourceLocation", ptr %2, i32 0, i32 0
  %7 = load i32, ptr %6, align 4
  ret i32 %7
}

; Function Attrs: mustprogress nounwind uwtable
define dso_local void @_ZN5clang18CoverageSourceInfo16updateNextTokLocENS_14SourceLocationE(ptr noundef nonnull align 8 dereferenceable(60) %0, i32 %1) #1 align 2 {
  %3 = alloca %"class.clang::SourceLocation", align 4
  %4 = alloca ptr, align 8
  %5 = getelementptr inbounds nuw %"class.clang::SourceLocation", ptr %3, i32 0, i32 0
  store i32 %1, ptr %5, align 4
  store ptr %0, ptr %4, align 8
  %6 = load ptr, ptr %4, align 8
  %7 = getelementptr inbounds nuw %"class.clang::CoverageSourceInfo", ptr %6, i32 0, i32 3
  %8 = call noundef zeroext i1 @_ZNKSt6vectorIN5clang12SkippedRangeESaIS1_EE5emptyEv(ptr noundef nonnull align 8 dereferenceable(24) %7) #2
  br i1 %8, label %18, label %9

9:                                                ; preds = %2
  %10 = getelementptr inbounds nuw %"class.clang::CoverageSourceInfo", ptr %6, i32 0, i32 3
  %11 = call noundef nonnull align 4 dereferenceable(20) ptr @_ZNSt6vectorIN5clang12SkippedRangeESaIS1_EE4backEv(ptr noundef nonnull align 8 dereferenceable(24) %10) #2
  %12 = getelementptr inbounds nuw %"struct.clang::SkippedRange", ptr %11, i32 0, i32 2
  %13 = call noundef zeroext i1 @_ZNK5clang14SourceLocation9isInvalidEv(ptr noundef nonnull align 4 dereferenceable(4) %12)
  br i1 %13, label %14, label %18

14:                                               ; preds = %9
  %15 = getelementptr inbounds nuw %"class.clang::CoverageSourceInfo", ptr %6, i32 0, i32 3
  %16 = call noundef nonnull align 4 dereferenceable(20) ptr @_ZNSt6vectorIN5clang12SkippedRangeESaIS1_EE4backEv(ptr noundef nonnull align 8 dereferenceable(24) %15) #2
  %17 = getelementptr inbounds nuw %"struct.clang::SkippedRange", ptr %16, i32 0, i32 2
  call void @llvm.memcpy.p0.p0.i64(ptr align 4 %17, ptr align 4 %3, i64 4, i1 false)
  br label %18

18:                                               ; preds = %14, %9, %2
  ret void
}

; Function Attrs: mustprogress nounwind uwtable
define linkonce_odr hidden noundef zeroext i16 @_ZNK5clang5Token7getKindEv(ptr noundef nonnull align 8 dereferenceable(20) %0) #1 comdat align 2 {
  %2 = alloca ptr, align 8
  store ptr %0, ptr %2, align 8
  %3 = load ptr, ptr %2, align 8
  %4 = getelementptr inbounds nuw %"class.clang::Token", ptr %3, i32 0, i32 3
  %5 = load i16, ptr %4, align 8
  ret i16 %5
}

; Function Attrs: mustprogress nounwind uwtable
define linkonce_odr hidden i32 @_ZNK5clang5Token11getLocationEv(ptr noundef nonnull align 8 dereferenceable(20) %0) #1 comdat align 2 {
  %2 = alloca %"class.clang::SourceLocation", align 4
  %3 = alloca ptr, align 8
  store ptr %0, ptr %3, align 8
  %4 = load ptr, ptr %3, align 8
  %5 = getelementptr inbounds nuw %"class.clang::Token", ptr %4, i32 0, i32 0
  %6 = load i32, ptr %5, align 8
  %7 = call i32 @_ZN5clang14SourceLocation18getFromRawEncodingEj(i32 noundef %6)
  %8 = getelementptr inbounds nuw %"class.clang::SourceLocation", ptr %2, i32 0, i32 0
  store i32 %7, ptr %8, align 4
  %9 = getelementptr inbounds nuw %"class.clang::SourceLocation", ptr %2, i32 0, i32 0
  %10 = load i32, ptr %9, align 4
  ret i32 %10
}

; Function Attrs: mustprogress nounwind uwtable
define internal void @"_ZZN5clang7CodeGen24CoverageMappingModuleGen22setUpCoverageCallbacksERNS_12PreprocessorEENK3$_0clENS_5TokenE"(ptr noundef nonnull align 8 dereferenceable(8) %0, ptr noundef byval(%"class.clang::Token") align 8 %1) #1 align 2 {
  %3 = alloca ptr, align 8
  %4 = alloca %"class.clang::SourceLocation", align 4
  %5 = alloca %"class.clang::SourceLocation", align 4
  store ptr %0, ptr %3, align 8
  %6 = load ptr, ptr %3, align 8
  %7 = call i32 @_ZNK5clang5Token11getLocationEv(ptr noundef nonnull align 8 dereferenceable(20) %1)
  %8 = getelementptr inbounds nuw %"class.clang::SourceLocation", ptr %4, i32 0, i32 0
  store i32 %7, ptr %8, align 4
  %9 = getelementptr inbounds nuw %class.anon, ptr %6, i32 0, i32 0
  %10 = load ptr, ptr %9, align 8
  %11 = getelementptr inbounds nuw %"class.clang::CoverageSourceInfo", ptr %10, i32 0, i32 5
  call void @llvm.memcpy.p0.p0.i64(ptr align 8 %11, ptr align 4 %4, i64 4, i1 false)
  %12 = call noundef zeroext i16 @_ZNK5clang5Token7getKindEv(ptr noundef nonnull align 8 dereferenceable(20) %1)
  %13 = zext i16 %12 to i32
  %14 = icmp ne i32 %13, 2
  br i1 %14, label %15, label %22

15:                                               ; preds = %2
  %16 = getelementptr inbounds nuw %class.anon, ptr %6, i32 0, i32 0
  %17 = load ptr, ptr %16, align 8
  %18 = call i32 @_ZNK5clang5Token11getLocationEv(ptr noundef nonnull align 8 dereferenceable(20) %1)
  %19 = getelementptr inbounds nuw %"class.clang::SourceLocation", ptr %5, i32 0, i32 0
  store i32 %18, ptr %19, align 4
  %20 = getelementptr inbounds nuw %"class.clang::SourceLocation", ptr %5, i32 0, i32 0
  %21 = load i32, ptr %20, align 4
  call void @_ZN5clang18CoverageSourceInfo16updateNextTokLocENS_14SourceLocationE(ptr noundef nonnull align 8 dereferenceable(60) %17, i32 %21)
  br label %22

22:                                               ; preds = %15, %2
  ret void
}

; Function Attrs: mustprogress nounwind uwtable
define internal void @"_ZN4llvm6detail18UniqueFunctionBaseIvJRKN5clang5TokenEEE8CallImplIZNS2_7CodeGen24CoverageMappingModuleGen22setUpCoverageCallbacksERNS2_12PreprocessorEE3$_0EEvPvS5_"(ptr noundef %0, ptr noundef nonnull align 8 dereferenceable(20) %1) #1 align 2 {
  %3 = alloca ptr, align 8
  %4 = alloca ptr, align 8
  %5 = alloca ptr, align 8
  %6 = alloca %"class.clang::Token", align 8
  store ptr %0, ptr %3, align 8
  store ptr %1, ptr %4, align 8
  %7 = load ptr, ptr %3, align 8
  store ptr %7, ptr %5, align 8
  %8 = load ptr, ptr %5, align 8
  %9 = load ptr, ptr %4, align 8
  call void @llvm.memcpy.p0.p0.i64(ptr align 8 %6, ptr align 8 %9, i64 24, i1 false)
  call void @"_ZZN5clang7CodeGen24CoverageMappingModuleGen22setUpCoverageCallbacksERNS_12PreprocessorEENK3$_0clENS_5TokenE"(ptr noundef nonnull align 8 dereferenceable(8) %8, ptr noundef byval(%"class.clang::Token") align 8 %6)
  ret void
}