; Function Attrs: mustprogress nofree norecurse nosync nounwind willreturn memory(readwrite, inaccessiblemem: none) uwtable
define internal void @"_ZN4llvm6detail18UniqueFunctionBaseIvJRKN5clang5TokenEEE8CallImplIZNS2_7CodeGen24CoverageMappingModuleGen22setUpCoverageCallbacksERNS2_12PreprocessorEE3$_0EEvPvS5_"(ptr nocapture noundef readonly %0, ptr nocapture noundef nonnull readonly align 8 dereferenceable(20) %1) #7 align 2 {
  %.sroa.0.0.copyload = load i32, ptr %1, align 8
  %.sroa.24.0..sroa_idx = getelementptr inbounds i8, ptr %1, i64 16
  %.sroa.24.0.copyload = load i16, ptr %.sroa.24.0..sroa_idx, align 8
  %3 = load ptr, ptr %0, align 8
  %4 = getelementptr inbounds nuw i8, ptr %3, i64 56
  store i32 %.sroa.0.0.copyload, ptr %4, align 8
  %.not.i = icmp eq i16 %.sroa.24.0.copyload, 2
  br i1 %.not.i, label %"_ZZN5clang7CodeGen24CoverageMappingModuleGen22setUpCoverageCallbacksERNS_12PreprocessorEENK3$_0clENS_5TokenE.exit", label %5

5:                                                ; preds = %2
  %6 = load ptr, ptr %0, align 8
  %7 = getelementptr inbounds nuw i8, ptr %6, i64 24
  %8 = load ptr, ptr %7, align 8
  %9 = getelementptr inbounds i8, ptr %6, i64 32
  %10 = load ptr, ptr %9, align 8
  %11 = icmp eq ptr %8, %10
  br i1 %11, label %"_ZZN5clang7CodeGen24CoverageMappingModuleGen22setUpCoverageCallbacksERNS_12PreprocessorEENK3$_0clENS_5TokenE.exit", label %12

12:                                               ; preds = %5
  %13 = getelementptr inbounds i8, ptr %10, i64 -8
  %14 = load i32, ptr %13, align 4
  %15 = icmp eq i32 %14, 0
  br i1 %15, label %16, label %"_ZZN5clang7CodeGen24CoverageMappingModuleGen22setUpCoverageCallbacksERNS_12PreprocessorEENK3$_0clENS_5TokenE.exit"

16:                                               ; preds = %12
  store i32 %.sroa.0.0.copyload, ptr %13, align 4
  br label %"_ZZN5clang7CodeGen24CoverageMappingModuleGen22setUpCoverageCallbacksERNS_12PreprocessorEENK3$_0clENS_5TokenE.exit"

"_ZZN5clang7CodeGen24CoverageMappingModuleGen22setUpCoverageCallbacksERNS_12PreprocessorEENK3$_0clENS_5TokenE.exit": ; preds = %2, %5, %12, %16
  ret void
}